target datalayout = "e-m:e-p270:32:32-p271:32:32-p272:64:64-i64:64-i128:128-f80:128-n8:16:32:64-S128"
target triple = "x86_64-unknown-linux-gnu"

%"class.icu_75::NFSubstitution" = type { %"class.icu_75::UObject", i32, ptr, ptr }
%"class.icu_75::UObject" = type { ptr }
%"class.std::type_info" = type { ptr, ptr }
%"class.icu_75::FractionalPartSubstitution" = type <{ %"class.icu_75::NFSubstitution", i8, i8, [6 x i8] }>

; Function Attrs: mustprogress nounwind uwtable
define linkonce_odr noundef ptr @_ZNKSt9type_info4nameEv(ptr noundef nonnull align 8 dereferenceable(16) %this) #0 comdat align 2 {
entry:
  %this.addr = alloca ptr, align 8
  store ptr %this, ptr %this.addr, align 8
  %this1 = load ptr, ptr %this.addr, align 8
  %__name = getelementptr inbounds %"class.std::type_info", ptr %this1, i32 0, i32 1
  %0 = load ptr, ptr %__name, align 8
  %arrayidx = getelementptr inbounds i8, ptr %0, i64 0
  %1 = load i8, ptr %arrayidx, align 1
  %conv = sext i8 %1 to i32
  %cmp = icmp eq i32 %conv, 42
  br i1 %cmp, label %cond.true, label %cond.false

cond.true:                                        ; preds = %entry
  %__name2 = getelementptr inbounds %"class.std::type_info", ptr %this1, i32 0, i32 1
  %2 = load ptr, ptr %__name2, align 8
  %add.ptr = getelementptr inbounds i8, ptr %2, i64 1
  br label %cond.end

cond.false:                                       ; preds = %entry
  %__name3 = getelementptr inbounds %"class.std::type_info", ptr %this1, i32 0, i32 1
  %3 = load ptr, ptr %__name3, align 8
  br label %cond.end

cond.end:                                         ; preds = %cond.false, %cond.true
  %cond = phi ptr [ %add.ptr, %cond.true ], [ %3, %cond.false ]
  ret ptr %cond
}

; Function Attrs: mustprogress nounwind uwtable
define linkonce_odr noundef zeroext i1 @_ZNKSt9type_infoeqERKS_(ptr noundef nonnull align 8 dereferenceable(16) %this, ptr noundef nonnull align 8 dereferenceable(16) %__arg) #0 comdat align 2 {
entry:
  %retval = alloca i1, align 1
  %this.addr = alloca ptr, align 8
  %__arg.addr = alloca ptr, align 8
  store ptr %this, ptr %this.addr, align 8
  store ptr %__arg, ptr %__arg.addr, align 8
  %this1 = load ptr, ptr %this.addr, align 8
  %__name = getelementptr inbounds %"class.std::type_info", ptr %this1, i32 0, i32 1
  %0 = load ptr, ptr %__name, align 8
  %1 = load ptr, ptr %__arg.addr, align 8
  %__name2 = getelementptr inbounds %"class.std::type_info", ptr %1, i32 0, i32 1
  %2 = load ptr, ptr %__name2, align 8
  %cmp = icmp eq ptr %0, %2
  br i1 %cmp, label %if.then, label %if.end

if.then:                                          ; preds = %entry
  store i1 true, ptr %retval, align 1
  br label %return

if.end:                                           ; preds = %entry
  %__name3 = getelementptr inbounds %"class.std::type_info", ptr %this1, i32 0, i32 1
  %3 = load ptr, ptr %__name3, align 8
  %arrayidx = getelementptr inbounds i8, ptr %3, i64 0
  %4 = load i8, ptr %arrayidx, align 1
  %conv = sext i8 %4 to i32
  %cmp4 = icmp ne i32 %conv, 42
  br i1 %cmp4, label %land.rhs, label %land.end

land.rhs:                                         ; preds = %if.end
  %__name5 = getelementptr inbounds %"class.std::type_info", ptr %this1, i32 0, i32 1
  %5 = load ptr, ptr %__name5, align 8
  %6 = load ptr, ptr %__arg.addr, align 8
  %call = call noundef ptr @_ZNKSt9type_info4nameEv(ptr noundef nonnull align 8 dereferenceable(16) %6) #6
  %call6 = call i32 @strcmp(ptr noundef %5, ptr noundef %call) #6
  %cmp7 = icmp eq i32 %call6, 0
  br label %land.end

land.end:                                         ; preds = %land.rhs, %if.end
  %7 = phi i1 [ false, %if.end ], [ %cmp7, %land.rhs ]
  store i1 %7, ptr %retval, align 1
  br label %return

return:                                           ; preds = %land.end, %if.then
  %8 = load i1, ptr %retval, align 1
  ret i1 %8
}

; Function Attrs: mustprogress uwtable
define noundef zeroext i1 @_ZNK6icu_7514NFSubstitutioneqERKS0_(ptr noundef nonnull align 8 dereferenceable(32) %this, ptr noundef nonnull align 8 dereferenceable(32) %rhs) unnamed_addr #2 align 2 {
entry:
  %this.addr = alloca ptr, align 8
  %rhs.addr = alloca ptr, align 8
  store ptr %this, ptr %this.addr, align 8
  store ptr %rhs, ptr %rhs.addr, align 8
  %this1 = load ptr, ptr %this.addr, align 8
  %0 = icmp eq ptr %this1, null
  br i1 %0, label %typeid.bad_typeid, label %typeid.end

typeid.bad_typeid:                                ; preds = %entry
  call void @__cxa_bad_typeid() #8
  unreachable

typeid.end:                                       ; preds = %entry
  %vtable = load ptr, ptr %this1, align 8
  %1 = getelementptr inbounds ptr, ptr %vtable, i64 -1
  %2 = load ptr, ptr %1, align 8
  %3 = load ptr, ptr %rhs.addr, align 8
  %vtable2 = load ptr, ptr %3, align 8
  %4 = getelementptr inbounds ptr, ptr %vtable2, i64 -1
  %5 = load ptr, ptr %4, align 8
  %call = call noundef zeroext i1 @_ZNKSt9type_infoeqERKS_(ptr noundef nonnull align 8 dereferenceable(16) %2, ptr noundef nonnull align 8 dereferenceable(16) %5) #6
  br i1 %call, label %land.lhs.true, label %land.end

land.lhs.true:                                    ; preds = %typeid.end
  %pos = getelementptr inbounds %"class.icu_75::NFSubstitution", ptr %this1, i32 0, i32 1
  %6 = load i32, ptr %pos, align 8
  %7 = load ptr, ptr %rhs.addr, align 8
  %pos3 = getelementptr inbounds %"class.icu_75::NFSubstitution", ptr %7, i32 0, i32 1
  %8 = load i32, ptr %pos3, align 8
  %cmp = icmp eq i32 %6, %8
  br i1 %cmp, label %land.lhs.true4, label %land.end

land.lhs.true4:                                   ; preds = %land.lhs.true
  %ruleSet = getelementptr inbounds %"class.icu_75::NFSubstitution", ptr %this1, i32 0, i32 2
  %9 = load ptr, ptr %ruleSet, align 8
  %cmp5 = icmp eq ptr %9, null
  %conv = zext i1 %cmp5 to i32
  %10 = load ptr, ptr %rhs.addr, align 8
  %ruleSet6 = getelementptr inbounds %"class.icu_75::NFSubstitution", ptr %10, i32 0, i32 2
  %11 = load ptr, ptr %ruleSet6, align 8
  %cmp7 = icmp eq ptr %11, null
  %conv8 = zext i1 %cmp7 to i32
  %cmp9 = icmp eq i32 %conv, %conv8
  br i1 %cmp9, label %land.rhs, label %land.end

land.rhs:                                         ; preds = %land.lhs.true4
  %numberFormat = getelementptr inbounds %"class.icu_75::NFSubstitution", ptr %this1, i32 0, i32 3
  %12 = load ptr, ptr %numberFormat, align 8
  %cmp10 = icmp eq ptr %12, null
  br i1 %cmp10, label %cond.true, label %cond.false

cond.true:                                        ; preds = %land.rhs
  %13 = load ptr, ptr %rhs.addr, align 8
  %numberFormat11 = getelementptr inbounds %"class.icu_75::NFSubstitution", ptr %13, i32 0, i32 3
  %14 = load ptr, ptr %numberFormat11, align 8
  %cmp12 = icmp eq ptr %14, null
  br label %cond.end

cond.false:                                       ; preds = %land.rhs
  %numberFormat13 = getelementptr inbounds %"class.icu_75::NFSubstitution", ptr %this1, i32 0, i32 3
  %15 = load ptr, ptr %numberFormat13, align 8
  %16 = load ptr, ptr %rhs.addr, align 8
  %numberFormat14 = getelementptr inbounds %"class.icu_75::NFSubstitution", ptr %16, i32 0, i32 3
  %17 = load ptr, ptr %numberFormat14, align 8
  %vtable15 = load ptr, ptr %15, align 8
  %vfn = getelementptr inbounds ptr, ptr %vtable15, i64 3
  %18 = load ptr, ptr %vfn, align 8
  %call16 = call noundef zeroext i1 %18(ptr noundef nonnull align 8 dereferenceable(368) %15, ptr noundef nonnull align 8 dereferenceable(322) %17)
  br label %cond.end

cond.end:                                         ; preds = %cond.false, %cond.true
  %cond = phi i1 [ %cmp12, %cond.true ], [ %call16, %cond.false ]
  br label %land.end

land.end:                                         ; preds = %cond.end, %land.lhs.true4, %land.lhs.true, %typeid.end
  %19 = phi i1 [ false, %land.lhs.true4 ], [ false, %land.lhs.true ], [ false, %typeid.end ], [ %cond, %cond.end ]
  ret i1 %19
}

; Function Attrs: mustprogress uwtable
define noundef zeroext i1 @_ZNK6icu_7526FractionalPartSubstitutioneqERKNS_14NFSubstitutionE(ptr noundef nonnull align 8 dereferenceable(34) %this, ptr noundef nonnull align 8 dereferenceable(32) %rhs) unnamed_addr #2 align 2 {
entry:
  %this.addr = alloca ptr, align 8
  %rhs.addr = alloca ptr, align 8
  store ptr %this, ptr %this.addr, align 8
  store ptr %rhs, ptr %rhs.addr, align 8
  %this1 = load ptr, ptr %this.addr, align 8
  %0 = load ptr, ptr %rhs.addr, align 8
  %call = call noundef zeroext i1 @_ZNK6icu_7514NFSubstitutioneqERKS0_(ptr noundef nonnull align 8 dereferenceable(32) %this1, ptr noundef nonnull align 8 dereferenceable(32) %0)
  br i1 %call, label %land.rhs, label %land.end

land.rhs:                                         ; preds = %entry
  %1 = load ptr, ptr %rhs.addr, align 8
  %byDigits = getelementptr inbounds %"class.icu_75::FractionalPartSubstitution", ptr %1, i32 0, i32 1
  %2 = load i8, ptr %byDigits, align 8
  %conv = sext i8 %2 to i32
  %byDigits2 = getelementptr inbounds %"class.icu_75::FractionalPartSubstitution", ptr %this1, i32 0, i32 1
  %3 = load i8, ptr %byDigits2, align 8
  %conv3 = sext i8 %3 to i32
  %cmp = icmp eq i32 %conv, %conv3
  br label %land.end

land.end:                                         ; preds = %land.rhs, %entry
  %4 = phi i1 [ false, %entry ], [ %cmp, %land.rhs ]
  ret i1 %4
}