; Function Attrs: mustprogress uwtable
define noundef zeroext i1 @_ZNK6icu_7526FractionalPartSubstitutioneqERKNS_14NFSubstitutionE(ptr nocapture noundef nonnull readonly align 8 dereferenceable(34) %this, ptr nocapture noundef nonnull readonly align 8 dereferenceable(32) %rhs) unnamed_addr #2 align 2 {
entry:
  %vtable.i = load ptr, ptr %this, align 8
  %0 = getelementptr inbounds i8, ptr %vtable.i, i64 -8
  %1 = load ptr, ptr %0, align 8
  %vtable2.i = load ptr, ptr %rhs, align 8
  %2 = getelementptr inbounds i8, ptr %vtable2.i, i64 -8
  %3 = load ptr, ptr %2, align 8
  %__name.i.i = getelementptr inbounds i8, ptr %1, i64 8
  %4 = load ptr, ptr %__name.i.i, align 8
  %__name2.i.i = getelementptr inbounds i8, ptr %3, i64 8
  %5 = load ptr, ptr %__name2.i.i, align 8
  %cmp.i.i = icmp eq ptr %4, %5
  br i1 %cmp.i.i, label %land.lhs.true.i, label %if.end.i.i

if.end.i.i:                                       ; preds = %entry
  %6 = load i8, ptr %4, align 1
  %cmp4.not.i.i = icmp eq i8 %6, 42
  br i1 %cmp4.not.i.i, label %land.end, label %_ZNKSt9type_infoeqERKS_.exit.i

_ZNKSt9type_infoeqERKS_.exit.i:                   ; preds = %if.end.i.i
  %7 = load i8, ptr %5, align 1
  %cmp.i.i.i = icmp eq i8 %7, 42
  %cond.idx.i.i.i = zext i1 %cmp.i.i.i to i64
  %cond.i.i.i = getelementptr inbounds i8, ptr %5, i64 %cond.idx.i.i.i
  %call6.i.i = tail call i32 @strcmp(ptr noundef nonnull dereferenceable(1) %4, ptr noundef nonnull dereferenceable(1) %cond.i.i.i) #11
  %cmp7.i.i = icmp eq i32 %call6.i.i, 0
  br i1 %cmp7.i.i, label %land.lhs.true.i, label %land.end

land.lhs.true.i:                                  ; preds = %_ZNKSt9type_infoeqERKS_.exit.i, %entry
  %pos.i = getelementptr inbounds i8, ptr %this, i64 8
  %8 = load i32, ptr %pos.i, align 8
  %pos3.i = getelementptr inbounds i8, ptr %rhs, i64 8
  %9 = load i32, ptr %pos3.i, align 8
  %cmp.i = icmp eq i32 %8, %9
  br i1 %cmp.i, label %land.lhs.true4.i, label %land.end

land.lhs.true4.i:                                 ; preds = %land.lhs.true.i
  %ruleSet.i = getelementptr inbounds i8, ptr %this, i64 16
  %10 = load ptr, ptr %ruleSet.i, align 8
  %cmp5.i = icmp eq ptr %10, null
  %ruleSet6.i = getelementptr inbounds i8, ptr %rhs, i64 16
  %11 = load ptr, ptr %ruleSet6.i, align 8
  %12 = icmp ne ptr %11, null
  %cmp9.i = xor i1 %cmp5.i, %12
  br i1 %cmp9.i, label %land.rhs.i, label %land.end

land.rhs.i:                                       ; preds = %land.lhs.true4.i
  %numberFormat.i = getelementptr inbounds i8, ptr %this, i64 24
  %13 = load ptr, ptr %numberFormat.i, align 8
  %cmp10.i = icmp eq ptr %13, null
  %numberFormat11.i = getelementptr inbounds i8, ptr %rhs, i64 24
  %14 = load ptr, ptr %numberFormat11.i, align 8
  br i1 %cmp10.i, label %cond.true.i, label %_ZNK6icu_7514NFSubstitutioneqERKS0_.exit

cond.true.i:                                      ; preds = %land.rhs.i
  %cmp12.i = icmp eq ptr %14, null
  br i1 %cmp12.i, label %land.rhs, label %land.end

_ZNK6icu_7514NFSubstitutioneqERKS0_.exit:         ; preds = %land.rhs.i
  %vtable15.i = load ptr, ptr %13, align 8
  %vfn.i = getelementptr inbounds i8, ptr %vtable15.i, i64 24
  %15 = load ptr, ptr %vfn.i, align 8
  %call16.i = tail call noundef zeroext i1 %15(ptr noundef nonnull align 8 dereferenceable(368) %13, ptr noundef nonnull align 8 dereferenceable(322) %14)
  br i1 %call16.i, label %land.rhs, label %land.end

land.rhs:                                         ; preds = %cond.true.i, %_ZNK6icu_7514NFSubstitutioneqERKS0_.exit
  %byDigits = getelementptr inbounds i8, ptr %rhs, i64 32
  %16 = load i8, ptr %byDigits, align 8
  %byDigits2 = getelementptr inbounds i8, ptr %this, i64 32
  %17 = load i8, ptr %byDigits2, align 8
  %cmp = icmp eq i8 %16, %17
  br label %land.end

land.end:                                         ; preds = %if.end.i.i, %_ZNKSt9type_infoeqERKS_.exit.i, %land.lhs.true.i, %land.lhs.true4.i, %cond.true.i, %land.rhs, %_ZNK6icu_7514NFSubstitutioneqERKS0_.exit
  %18 = phi i1 [ false, %_ZNK6icu_7514NFSubstitutioneqERKS0_.exit ], [ %cmp, %land.rhs ], [ false, %cond.true.i ], [ false, %land.lhs.true4.i ], [ false, %land.lhs.true.i ], [ false, %_ZNKSt9type_infoeqERKS_.exit.i ], [ false, %if.end.i.i ]
  ret i1 %18
}